; Function Attrs: nounwind uwtable
define ptr @mpool_realloc(ptr noundef %0, ptr noundef %1, i64 noundef %2) local_unnamed_addr #0 {
  %.not = icmp eq ptr %1, null
  br i1 %.not, label %4, label %6

4:                                                ; preds = %3
  %5 = tail call ptr @mpool_malloc(ptr noundef %0, i64 noundef %2)
  br label %44

6:                                                ; preds = %3
  %7 = getelementptr inbounds i8, ptr %1, i64 -2
  %.not41 = icmp eq i64 %2, 0
  br i1 %.not41, label %from_bits.exit.thread, label %8

8:                                                ; preds = %6
  %9 = getelementptr inbounds i8, ptr %1, i64 -1
  %10 = load i8, ptr %9, align 1
  %11 = zext i8 %10 to i32
  %12 = icmp ugt i8 %10, 99
  br i1 %12, label %from_bits.exit.thread, label %from_bits.exit

from_bits.exit.thread:                            ; preds = %8, %6
  tail call void (ptr, ...) @cli_errmsg(ptr noundef nonnull @.str.11, i64 noundef %2) #10
  br label %44

from_bits.exit:                                   ; preds = %8
  %13 = zext nneg i8 %10 to i64
  %14 = getelementptr inbounds [100 x i32], ptr @fragsz, i64 0, i64 %13
  %15 = load i32, ptr %14, align 4
  %16 = zext i32 %15 to i64
  %17 = load i8, ptr %7, align 1
  %18 = zext i8 %17 to i64
  %.neg51 = add nsw i64 %16, -2
  %19 = sub nsw i64 %.neg51, %18
  %.not43 = icmp ult i64 %19, %2
  br i1 %.not43, label %32, label %20

20:                                               ; preds = %from_bits.exit
  %.not44 = icmp eq i8 %10, 0
  br i1 %.not44, label %44, label %21

21:                                               ; preds = %20
  %22 = add nsw i32 %11, -1
  %23 = icmp ugt i32 %22, 99
  br i1 %23, label %from_bits.exit48, label %24

24:                                               ; preds = %21
  %25 = zext nneg i32 %22 to i64
  %26 = getelementptr inbounds [100 x i32], ptr @fragsz, i64 0, i64 %25
  %27 = load i32, ptr %26, align 4
  %28 = zext i32 %27 to i64
  %29 = add nsw i64 %28, -2
  br label %from_bits.exit48

from_bits.exit48:                                 ; preds = %21, %24
  %.0.i47 = phi i64 [ %29, %24 ], [ -2, %21 ]
  %30 = sub nsw i64 %.0.i47, %18
  %31 = icmp ult i64 %30, %2
  br i1 %31, label %44, label %32

32:                                               ; preds = %from_bits.exit48, %from_bits.exit
  %33 = tail call ptr @mpool_malloc(ptr noundef %0, i64 noundef %2)
  %.not45 = icmp eq ptr %33, null
  br i1 %.not45, label %44, label %mpool_free.exit

mpool_free.exit:                                  ; preds = %32
  %34 = tail call i64 @llvm.umin.i64(i64 %19, i64 %2)
  tail call void @llvm.memcpy.p0.p0.i64(ptr nonnull align 1 %33, ptr nonnull align 1 %1, i64 %34, i1 false)
  %35 = load i8, ptr %9, align 1
  %36 = load i8, ptr %7, align 1
  %37 = zext i8 %36 to i64
  %38 = sub nsw i64 0, %37
  %39 = getelementptr inbounds i8, ptr %7, i64 %38
  %40 = getelementptr inbounds i8, ptr %0, i64 8
  %41 = zext i8 %35 to i64
  %42 = getelementptr inbounds [100 x ptr], ptr %40, i64 0, i64 %41
  %43 = load ptr, ptr %42, align 8
  store ptr %43, ptr %39, align 1
  store ptr %39, ptr %42, align 8
  br label %44

44:                                               ; preds = %20, %from_bits.exit48, %32, %mpool_free.exit, %from_bits.exit.thread, %4
  %.0 = phi ptr [ %33, %mpool_free.exit ], [ null, %from_bits.exit.thread ], [ %5, %4 ], [ null, %32 ], [ %1, %from_bits.exit48 ], [ %1, %20 ]
  ret ptr %.0
}